; Function Attrs: mustprogress nofree norecurse nosync nounwind willreturn memory(argmem: read) uwtable
define dso_local noundef ptr @_ZNK4llvm9DWARFUnit14getParentEntryEPKNS_19DWARFDebugInfoEntryE(ptr nocapture noundef nonnull readonly align 8 dereferenceable(448) %0, ptr noundef readonly %1) local_unnamed_addr #8 align 2 {
  %.not = icmp eq ptr %1, null
  br i1 %.not, label %11, label %3

3:                                                ; preds = %2
  %4 = getelementptr inbounds nuw i8, ptr %1, i64 8
  %5 = load i32, ptr %4, align 8
  %.not.i.not = icmp eq i32 %5, -1
  br i1 %.not.i.not, label %11, label %6

6:                                                ; preds = %3
  %7 = getelementptr inbounds nuw i8, ptr %0, i64 288
  %8 = zext i32 %5 to i64
  %9 = load ptr, ptr %7, align 8
  %10 = getelementptr inbounds %"class.llvm::DWARFDebugInfoEntry", ptr %9, i64 %8
  br label %11

11:                                               ; preds = %3, %2, %6
  %.0 = phi ptr [ %10, %6 ], [ null, %2 ], [ null, %3 ]
  ret ptr %.0
}